target datalayout = "e-m:e-p270:32:32-p271:32:32-p272:64:64-i64:64-i128:128-f80:128-n8:16:32:64-S128"
target triple = "x86_64-pc-linux-gnu"

%struct.UFILE = type { ptr, ptr, ptr, %struct.u_localized_string, [1024 x i16], i8, i32 }
%struct.u_localized_string = type { ptr, ptr, ptr, %struct.ULocaleBundle }
%struct.ULocaleBundle = type { ptr, [5 x ptr], i8 }

; Function Attrs: inlinehint mustprogress nounwind uwtable
define internal noundef signext i8 @_ZL9U_SUCCESS10UErrorCode(i32 noundef %0) #3 {
  %2 = alloca i32, align 4
  store i32 %0, ptr %2, align 4, !tbaa !11
  %3 = load i32, ptr %2, align 4, !tbaa !11
  %4 = icmp sle i32 %3, 0
  %5 = zext i1 %4 to i8
  ret i8 %5
}

; Function Attrs: mustprogress uwtable
define internal noundef ptr @_ZL11finit_ownerP8_IO_FILEPKcS2_a(ptr noundef %0, ptr noundef %1, ptr noundef %2, i8 noundef signext %3) #0 {
  %5 = alloca ptr, align 8
  %6 = alloca ptr, align 8
  %7 = alloca ptr, align 8
  %8 = alloca ptr, align 8
  %9 = alloca i8, align 1
  %10 = alloca i32, align 4
  %11 = alloca ptr, align 8
  %12 = alloca i32, align 4
  store ptr %0, ptr %6, align 8, !tbaa !3
  store ptr %1, ptr %7, align 8, !tbaa !8
  store ptr %2, ptr %8, align 8, !tbaa !8
  store i8 %3, ptr %9, align 1, !tbaa !10
  call void @llvm.lifetime.start.p0(i64 4, ptr %10) #9
  store i32 0, ptr %10, align 4, !tbaa !11
  call void @llvm.lifetime.start.p0(i64 8, ptr %11) #9
  %13 = load ptr, ptr %6, align 8, !tbaa !3
  %14 = icmp eq ptr %13, null
  br i1 %14, label %15, label %16

15:                                               ; preds = %4
  store ptr null, ptr %5, align 8
  store i32 1, ptr %12, align 4
  br label %84

16:                                               ; preds = %4
  %17 = call noalias ptr @uprv_malloc_77(i64 noundef 2160) #10
  store ptr %17, ptr %11, align 8, !tbaa !13
  %18 = load ptr, ptr %11, align 8, !tbaa !13
  %19 = icmp eq ptr %18, null
  br i1 %19, label %20, label %21

20:                                               ; preds = %16
  store ptr null, ptr %5, align 8
  store i32 1, ptr %12, align 4
  br label %84

21:                                               ; preds = %16
  %22 = load ptr, ptr %11, align 8, !tbaa !13
  call void @llvm.memset.p0.i64(ptr align 8 %22, i8 0, i64 2160, i1 false)
  %23 = load ptr, ptr %6, align 8, !tbaa !3
  %24 = call i32 @fileno(ptr noundef %23) #9
  %25 = load ptr, ptr %11, align 8, !tbaa !13
  %26 = getelementptr inbounds nuw %struct.UFILE, ptr %25, i32 0, i32 6
  store i32 %24, ptr %26, align 4, !tbaa !15
  %27 = load ptr, ptr %6, align 8, !tbaa !3
  %28 = load ptr, ptr %11, align 8, !tbaa !13
  %29 = getelementptr inbounds nuw %struct.UFILE, ptr %28, i32 0, i32 1
  store ptr %27, ptr %29, align 8, !tbaa !22
  %30 = load ptr, ptr %11, align 8, !tbaa !13
  %31 = getelementptr inbounds nuw %struct.UFILE, ptr %30, i32 0, i32 4
  %32 = getelementptr inbounds [1024 x i16], ptr %31, i64 0, i64 0
  %33 = load ptr, ptr %11, align 8, !tbaa !13
  %34 = getelementptr inbounds nuw %struct.UFILE, ptr %33, i32 0, i32 3
  %35 = getelementptr inbounds nuw %struct.u_localized_string, ptr %34, i32 0, i32 2
  store ptr %32, ptr %35, align 8, !tbaa !23
  %36 = load ptr, ptr %11, align 8, !tbaa !13
  %37 = getelementptr inbounds nuw %struct.UFILE, ptr %36, i32 0, i32 4
  %38 = getelementptr inbounds [1024 x i16], ptr %37, i64 0, i64 0
  %39 = load ptr, ptr %11, align 8, !tbaa !13
  %40 = getelementptr inbounds nuw %struct.UFILE, ptr %39, i32 0, i32 3
  %41 = getelementptr inbounds nuw %struct.u_localized_string, ptr %40, i32 0, i32 0
  store ptr %38, ptr %41, align 8, !tbaa !24
  %42 = load ptr, ptr %11, align 8, !tbaa !13
  %43 = getelementptr inbounds nuw %struct.UFILE, ptr %42, i32 0, i32 4
  %44 = getelementptr inbounds [1024 x i16], ptr %43, i64 0, i64 0
  %45 = load ptr, ptr %11, align 8, !tbaa !13
  %46 = getelementptr inbounds nuw %struct.UFILE, ptr %45, i32 0, i32 3
  %47 = getelementptr inbounds nuw %struct.u_localized_string, ptr %46, i32 0, i32 1
  store ptr %44, ptr %47, align 8, !tbaa !25
  %48 = load ptr, ptr %11, align 8, !tbaa !13
  %49 = getelementptr inbounds nuw %struct.UFILE, ptr %48, i32 0, i32 3
  %50 = getelementptr inbounds nuw %struct.u_localized_string, ptr %49, i32 0, i32 3
  %51 = load ptr, ptr %7, align 8, !tbaa !8
  %52 = call ptr @u_locbund_init_77(ptr noundef %50, ptr noundef %51)
  %53 = icmp eq ptr %52, null
  br i1 %53, label %54, label %56

54:                                               ; preds = %21
  %55 = load ptr, ptr %11, align 8, !tbaa !13
  call void @uprv_free_77(ptr noundef %55)
  store ptr null, ptr %5, align 8
  store i32 1, ptr %12, align 4
  br label %84

56:                                               ; preds = %21
  %57 = load ptr, ptr %8, align 8, !tbaa !8
  %58 = icmp eq ptr %57, null
  br i1 %58, label %64, label %59

59:                                               ; preds = %56
  %60 = load ptr, ptr %8, align 8, !tbaa !8
  %61 = load i8, ptr %60, align 1, !tbaa !10
  %62 = sext i8 %61 to i32
  %63 = icmp ne i32 %62, 0
  br i1 %63, label %64, label %69

64:                                               ; preds = %59, %56
  %65 = load ptr, ptr %8, align 8, !tbaa !8
  %66 = call ptr @ucnv_open_77(ptr noundef %65, ptr noundef %10)
  %67 = load ptr, ptr %11, align 8, !tbaa !13
  %68 = getelementptr inbounds nuw %struct.UFILE, ptr %67, i32 0, i32 2
  store ptr %66, ptr %68, align 8, !tbaa !26
  br label %69

69:                                               ; preds = %64, %59
  %70 = load i32, ptr %10, align 4, !tbaa !11
  %71 = call noundef signext i8 @_ZL9U_SUCCESS10UErrorCode(i32 noundef %70)
  %72 = icmp ne i8 %71, 0
  br i1 %72, label %73, label %77

73:                                               ; preds = %69
  %74 = load i8, ptr %9, align 1, !tbaa !10
  %75 = load ptr, ptr %11, align 8, !tbaa !13
  %76 = getelementptr inbounds nuw %struct.UFILE, ptr %75, i32 0, i32 5
  store i8 %74, ptr %76, align 8, !tbaa !27
  br label %82

77:                                               ; preds = %69
  %78 = load ptr, ptr %11, align 8, !tbaa !13
  %79 = getelementptr inbounds nuw %struct.UFILE, ptr %78, i32 0, i32 3
  %80 = getelementptr inbounds nuw %struct.u_localized_string, ptr %79, i32 0, i32 3
  call void @u_locbund_close_77(ptr noundef %80)
  %81 = load ptr, ptr %11, align 8, !tbaa !13
  call void @uprv_free_77(ptr noundef %81)
  store ptr null, ptr %11, align 8, !tbaa !13
  br label %82

82:                                               ; preds = %77, %73
  %83 = load ptr, ptr %11, align 8, !tbaa !13
  store ptr %83, ptr %5, align 8
  store i32 1, ptr %12, align 4
  br label %84

84:                                               ; preds = %82, %54, %20, %15
  call void @llvm.lifetime.end.p0(i64 8, ptr %11) #9
  call void @llvm.lifetime.end.p0(i64 4, ptr %10) #9
  %85 = load ptr, ptr %5, align 8
  ret ptr %85
}