; Function Attrs: mustprogress uwtable
define internal fastcc noundef ptr @_ZL11finit_ownerP8_IO_FILEPKcS2_a(ptr noundef %0, ptr noundef %1, ptr noundef %2, i8 noundef signext range(i8 0, 2) %3) unnamed_addr #0 {
  %5 = alloca i32, align 4
  call void @llvm.lifetime.start.p0(i64 4, ptr nonnull %5) #9
  store i32 0, ptr %5, align 4, !tbaa !3
  %6 = icmp eq ptr %0, null
  br i1 %6, label %32, label %7

7:                                                ; preds = %4
  %8 = tail call noalias dereferenceable_or_null(2160) ptr @uprv_malloc_77(i64 noundef 2160) #10
  %9 = icmp eq ptr %8, null
  br i1 %9, label %32, label %10

10:                                               ; preds = %7
  tail call void @llvm.memset.p0.i64(ptr noundef nonnull align 8 dereferenceable(2160) %8, i8 0, i64 2160, i1 false)
  %11 = tail call i32 @fileno(ptr noundef nonnull %0) #9
  %12 = getelementptr inbounds nuw i8, ptr %8, i64 2156
  store i32 %11, ptr %12, align 4, !tbaa !7
  %13 = getelementptr inbounds nuw i8, ptr %8, i64 8
  store ptr %0, ptr %13, align 8, !tbaa !17
  %14 = getelementptr inbounds nuw i8, ptr %8, i64 104
  %15 = getelementptr inbounds nuw i8, ptr %8, i64 24
  %16 = getelementptr inbounds nuw i8, ptr %8, i64 40
  store ptr %14, ptr %16, align 8, !tbaa !18
  store ptr %14, ptr %15, align 8, !tbaa !19
  %17 = getelementptr inbounds nuw i8, ptr %8, i64 32
  store ptr %14, ptr %17, align 8, !tbaa !20
  %18 = getelementptr inbounds nuw i8, ptr %8, i64 48
  %19 = tail call ptr @u_locbund_init_77(ptr noundef nonnull %18, ptr noundef %1)
  %20 = icmp eq ptr %19, null
  br i1 %20, label %21, label %22

21:                                               ; preds = %10
  tail call void @uprv_free_77(ptr noundef nonnull %8)
  br label %32

22:                                               ; preds = %10
  %23 = icmp eq ptr %2, null
  br i1 %23, label %26, label %24

24:                                               ; preds = %22
  %25 = load i8, ptr %2, align 1, !tbaa !21
  %.not = icmp eq i8 %25, 0
  br i1 %.not, label %.thread, label %26

26:                                               ; preds = %22, %24
  %27 = call ptr @ucnv_open_77(ptr noundef %2, ptr noundef nonnull %5)
  %28 = getelementptr inbounds nuw i8, ptr %8, i64 16
  store ptr %27, ptr %28, align 8, !tbaa !22
  %.pre = load i32, ptr %5, align 4, !tbaa !3
  %29 = icmp sgt i32 %.pre, 0
  br i1 %29, label %31, label %.thread

.thread:                                          ; preds = %24, %26
  %30 = getelementptr inbounds nuw i8, ptr %8, i64 2152
  store i8 %3, ptr %30, align 8, !tbaa !23
  br label %32

31:                                               ; preds = %26
  call void @u_locbund_close_77(ptr noundef nonnull %18)
  call void @uprv_free_77(ptr noundef nonnull %8)
  br label %32

32:                                               ; preds = %.thread, %31, %7, %4, %21
  %.025 = phi ptr [ null, %21 ], [ null, %4 ], [ null, %7 ], [ %8, %.thread ], [ null, %31 ]
  call void @llvm.lifetime.end.p0(i64 4, ptr nonnull %5) #9
  ret ptr %.025
}